; Function Attrs: mustprogress uwtable
define void @_ZN6google8protobuf10Int32ValueC2EPNS0_5ArenaERKS1_(ptr noundef nonnull align 8 dereferenceable(24) %this, ptr noundef %arena, ptr nocapture noundef nonnull readonly align 8 dereferenceable(24) %from) unnamed_addr #3 align 2 personality ptr @__gxx_personality_v0 {
entry:
  %_internal_metadata_.i.i.i = getelementptr inbounds i8, ptr %this, i64 8
  %0 = ptrtoint ptr %arena to i64
  store i64 %0, ptr %_internal_metadata_.i.i.i, align 8
  store ptr getelementptr inbounds ({ [13 x ptr] }, ptr @_ZTVN6google8protobuf10Int32ValueE, i64 0, i32 0, i64 2), ptr %this, align 8
  %1 = getelementptr inbounds i8, ptr %this, i64 16
  %_cached_size_.i.i.i = getelementptr inbounds i8, ptr %this, i64 20
  store i32 0, ptr %_cached_size_.i.i.i, align 4
  store i32 0, ptr %1, align 8
  %2 = getelementptr inbounds i8, ptr %from, i64 16
  %3 = load i32, ptr %2, align 8
  store i32 %3, ptr %1, align 8
  %_internal_metadata_3.i.i = getelementptr inbounds i8, ptr %from, i64 8
  %4 = load i64, ptr %_internal_metadata_3.i.i, align 8
  %and.i8.i.i = and i64 %4, 1
  %tobool.i9.not.i.i = icmp eq i64 %and.i8.i.i, 0
  br i1 %tobool.i9.not.i.i, label %invoke.cont, label %if.then.i.i.i.i

if.then.i.i.i.i:                                  ; preds = %entry
  %and.i.i.i = and i64 %4, -2
  %5 = inttoptr i64 %and.i.i.i to ptr
  %unknown_fields.i.i.i.i = getelementptr inbounds i8, ptr %5, i64 8
  invoke void @_ZN6google8protobuf8internal16InternalMetadata11DoMergeFromINS0_15UnknownFieldSetEEEvRKT_(ptr noundef nonnull align 8 dereferenceable(8) %_internal_metadata_.i.i.i, ptr noundef nonnull align 8 dereferenceable(24) %unknown_fields.i.i.i.i)
          to label %invoke.cont unwind label %lpad

invoke.cont:                                      ; preds = %entry, %if.then.i.i.i.i
  ret void

lpad:                                             ; preds = %if.then.i.i.i.i
  %6 = landingpad { ptr, i32 }
          cleanup
  tail call void @_ZN6google8protobuf10Int32ValueD2Ev(ptr noundef nonnull align 8 dereferenceable(24) %this) #15
  resume { ptr, i32 } %6
}